(dp0
S'Empathy'
p1
(dp2
S'n_mix'
p3
I3
sS'n_components'
p4
I4
ssS'Disbelief'
p5
(dp6
g3
I3
sg4
I5
ssS'Sarcasm'
p7
(dp8
g3
I3
sg4
I5
ssS'Neutral'
p9
(dp10
g3
I3
sg4
I6
ssS'Sadness'
p11
(dp12
g3
I3
sg4
I3
ssS'Despair'
p13
(dp14
g3
I2
sg4
I5
ssS'Happiness'
p15
(dp16
g3
I3
sg4
I3
ssS'Anger'
p17
(dp18
g3
I4
sg4
I5
ssS'Surprise'
p19
(dp20
g3
I3
sg4
I4
ssS'Hope'
p21
(dp22
g3
I2
sg4
I2
ss.